(dp1
I1
(dp2
S'X'
I512
sS'a'
I357406
sS'c'
I59304
sS'b'
I17
sS'e'
I297072
sS'd'
I255694
sS'g'
I332598
sS'f'
I174905
sS'i'
I253588
sS'h'
I101308
sS'k'
I261035
sS'm'
I96371
sS'l'
I398886
sS'n'
I183950
sS'q'
I165060
sS'p'
I200068
sS's'
I272555
sS'r'
I220788
sS't'
I242533
sS'w'
I59258
sS'v'
I314698
sS'y'
I153700
sS'x'
I159
sS'z'
I23
ssI2
(dp3
S'gv'
p4
I24141
sS'gt'
p5
I20703
sS'gs'
p6
I23286
sS'gr'
p7
I16819
sS'vr'
p8
I15779
sS'gg'
p9
I26048
sS'ge'
p10
I20108
sS'gd'
p11
I18482
sS'ga'
p12
I24728
sS'gl'
p13
I27077
sS'gk'
p14
I21630
sS'gi'
p15
I19404
sS'lg'
p16
I27240
sS'ld'
p17
I23789
sS'le'
p18
I29290
sS'la'
p19
I33871
sS'tv'
p20
I19262
sS'll'
p21
I34067
sS'lk'
p22
I26741
sS'li'
p23
I20145
sS'lv'
p24
I26504
sS'tl'
p25
I23834
sS'lr'
p26
I22537
sS'ls'
p27
I25972
sS'lp'
p28
I19347
sS'lq'
p29
I16407
sS'tg'
p30
I19578
sS'ta'
p31
I18930
sS'dl'
p32
I24374
sS'di'
p33
I17268
sS'dg'
p34
I20242
sS'de'
p35
I16921
sS'da'
p36
I20507
sS'dv'
p37
I19084
sS'ql'
p38
I16081
sS'el'
p39
I28854
sS'ei'
p40
I18970
sS'ek'
p41
I20739
sS'ee'
p42
I23139
sS'ed'
p43
I16833
sS'eg'
p44
I20021
sS'ea'
p45
I25312
sS'ev'
p46
I21400
sS'er'
p47
I16183
sS'rv'
p48
I16690
sS're'
p49
I15831
sS'ra'
p50
I17795
sS'rl'
p51
I21618
sS'ln'
p52
I16634
sS'vd'
p53
I19346
sS'ad'
p54
I20663
sS'pv'
p55
I15158
sS'lt'
p56
I23430
sS'pa'
p57
I15249
sS'pg'
p58
I17055
sS'pe'
p59
I16847
sS'is'
p60
I16901
sS'pl'
p61
I16834
sS'it'
p62
I15376
sS'ik'
p63
I16148
sS'kk'
p64
I16613
sS'ar'
p65
I18491
sS'at'
p66
I18466
sS'aa'
p67
I34650
sS'va'
p68
I25741
sS'ae'
p69
I24001
sS've'
p70
I21708
sS'ag'
p71
I26999
sS'vg'
p72
I20240
sS'ai'
p73
I20086
sS'vi'
p74
I17976
sS'ak'
p75
I20212
sS'vk'
p76
I19711
sS'vl'
p77
I27807
sS'al'
p78
I34463
sS'iv'
p79
I17374
sS'as'
p80
I21536
sS'vs'
p81
I19543
sS'vt'
p82
I19721
sS'il'
p83
I20251
sS'vv'
p84
I23481
sS'av'
p85
I25953
sS'ia'
p86
I21106
sS'ie'
p87
I17288
sS'id'
p88
I16238
sS'ig'
p89
I17796
sS'nl'
p90
I16758
sS'ka'
p91
I21590
sS'kg'
p92
I17844
sS'ke'
p93
I20202
sS'kd'
p94
I15382
sS'ss'
p95
I20527
sS'ki'
p96
I16359
sS'sv'
p97
I18529
sS'kl'
p98
I24386
sS'kv'
p99
I19217
sS'sl'
p100
I24731
sS'sa'
p101
I19805
sS'sg'
p102
I26472
sS'se'
p103
I15454
ssI3
(dp104
S'all'
p105
I2981
sS'alk'
p106
I2482
sS'lsa'
p107
I2149
sS'lls'
p108
I2236
sS'alg'
p109
I2503
sS'ale'
p110
I2751
sS'ala'
p111
I3734
sS'llk'
p112
I2411
sS'lll'
p113
I2454
sS'alv'
p114
I2065
sS'lla'
p115
I2944
sS'llg'
p116
I2397
sS'als'
p117
I2057
sS'lle'
p118
I3087
sS'lld'
p119
I2681
sS'elk'
p120
I2084
sS'lkk'
p121
I2096
sS'ell'
p122
I2972
sS'lke'
p123
I2738
sS'elg'
p124
I2092
sS'lka'
p125
I2202
sS'adl'
p126
I2172
sS'elv'
p127
I2102
sS'lre'
p128
I2080
sS'daa'
p129
I2122
sS'vla'
p130
I2346
sS'vle'
p131
I2316
sS'ssl'
p132
I2045
sS'ssg'
p133
I2965
sS'ldl'
p134
I2090
sS'evl'
p135
I2281
sS'aea'
p136
I2332
sS'eel'
p137
I2938
sS'eea'
p138
I2184
sS'ael'
p139
I2383
sS'lea'
p140
I2497
sS'lve'
p141
I2178
sS'dla'
p142
I2058
sS'alr'
p143
I2203
sS'dll'
p144
I2275
sS'rll'
p145
I2214
sS'kel'
p146
I2495
sS'lee'
p147
I2726
sS'lek'
p148
I2517
sS'lel'
p149
I2280
sS'ggg'
p150
I2665
sS'asg'
p151
I2320
sS'asl'
p152
I2075
sS'ekl'
p153
I2550
sS'gll'
p154
I2062
sS'gla'
p155
I2343
sS'aka'
p156
I2082
sS'glv'
p157
I2050
sS'ela'
p158
I2668
sS'sgs'
p159
I3220
sS'sgt'
p160
I2081
sS'sgg'
p161
I2080
sS'val'
p162
I2196
sS'vaa'
p163
I2660
sS'vva'
p164
I2080
sS'eal'
p165
I3327
sS'lgl'
p166
I2511
sS'eaa'
p167
I2570
sS'lga'
p168
I2179
sS'lgg'
p169
I2084
sS'gal'
p170
I2057
sS'gag'
p171
I2272
sS'lgv'
p172
I2046
sS'gaa'
p173
I2047
sS'eav'
p174
I2191
sS'aae'
p175
I2230
sS'aag'
p176
I2764
sS'aaa'
p177
I3802
sS'kll'
p178
I2453
sS'aal'
p179
I3440
sS'sll'
p180
I2201
sS'aav'
p181
I2511
sS'lva'
p182
I2208
sS'aar'
p183
I2054
sS'aia'
p184
I2197
sS'ral'
p185
I2077
sS'avl'
p186
I2303
sS'ava'
p187
I2625
sS'vll'
p188
I2100
sS'dal'
p189
I2221
sS'lal'
p190
I2616
sS'lak'
p191
I2305
sS'lad'
p192
I2129
sS'lae'
p193
I2946
sS'kvl'
p194
I2108
sS'lag'
p195
I2475
sS'laa'
p196
I3431
sS'kal'
p197
I2657
sS'lar'
p198
I2212
sS'las'
p199
I2112
sS'gss'
p200
I2680
sS'agl'
p201
I2391
sS'aga'
p202
I2435
sS'gsg'
p203
I3104
sS'agv'
p204
I2235
ssI4
(dp205
S'kale'
p206
I300
sS'aaga'
p207
I283
sS'yycq'
p208
I288
sS'lliy'
p209
I377
sS'gtkl'
p210
I519
sS'elak'
p211
I314
sS'yyca'
p212
I315
sS'alle'
p213
I304
sS'alld'
p214
I283
sS'alla'
p215
I352
sS'kpgq'
p216
I283
sS'lekl'
p217
I302
sS'gdrv'
p218
I290
sS'aava'
p219
I329
sS'tkle'
p220
I409
sS'avaa'
p221
I330
sS'sgvp'
p222
I438
sS'gtdf'
p223
I343
sS'aiaa'
p224
I284
sS'lkel'
p225
I334
sS'tqsp'
p226
I403
sS'lala'
p227
I320
sS'avyy'
p228
I312
sS'alel'
p229
I281
sS'aeal'
p230
I356
sS'tiss'
p231
I303
sS'tfgg'
p232
I317
sS'alea'
p233
I305
sS'laal'
p234
I352
sS'laaa'
p235
I411
sS'tvss'
p236
I364
sS'gggt'
p237
I507
sS'wyqq'
p238
I469
sS'leaa'
p239
I315
sS'hhhh'
p240
I742
sS'ggtk'
p241
I365
sS'leal'
p242
I343
sS'leik'
p243
I307
sS'gpss'
p244
I500
sS'sgtd'
p245
I378
sS'klei'
p246
I317
sS'qqkp'
p247
I342
sS'aall'
p248
I290
sS'eaar'
p249
I285
sS'fsgs'
p250
I588
sS'aale'
p251
I312
sS'fggg'
p252
I450
sS'llaa'
p253
I291
sS'sggg'
p254
I333
sS'aala'
p255
I490
sS'vaal'
p256
I283
sS'vaaa'
p257
I327
sS'slsa'
p258
I311
sS'gggl'
p259
I307
sS'ealr'
p260
I287
sS'qkpg'
p261
I403
sS'sgss'
p262
I687
sS'eale'
p263
I335
sS'eala'
p264
I359
sS'sgsg'
p265
I1013
sS'ssgs'
p266
I687
sS'ealk'
p267
I335
sS'alaa'
p268
I465
sS'akal'
p269
I302
sS'alae'
p270
I336
sS'alal'
p271
I303
sS'eeal'
p272
I288
sS'ltis'
p273
I405
sS'gsgs'
p274
I643
sS'klli'
p275
I372
sS'gsgt'
p276
I691
sS'gqgt'
p277
I543
sS'gglv'
p278
I285
sS'gssg'
p279
I1145
sS'wgqg'
p280
I376
sS'aaav'
p281
I316
sS'rfsg'
p282
I634
sS'aaaa'
p283
I506
sS'dftl'
p284
I356
sS'tdft'
p285
I347
sS'aaal'
p286
I445
sS'lael'
p287
I319
sS'leea'
p288
I287
sS'eelk'
p289
I324
sS'leel'
p290
I368
sS'laea'
p291
I283
sS'ellk'
p292
I283
sS'tlti'
p293
I328
sS'elle'
p294
I304
sS'yqqk'
p295
I360
sS'vyyc'
p296
I365
sS'ggsl'
p297
I325
sS'sgps'
p298
I512
sS'vtvs'
p299
I447
sS'lkal'
p300
I286
sS'pssg'
p301
I522
sS'llea'
p302
I288
sS'llek'
p303
I313
sS'aasg'
p304
I302
sS'pkll'
p305
I354
ss.